target datalayout = "e-m:e-p270:32:32-p271:32:32-p272:64:64-i64:64-i128:128-f80:128-n8:16:32:64-S128"
target triple = "x86_64-pc-linux-gnu"

%struct._sapi_module_struct = type { ptr, ptr, ptr, ptr, ptr, ptr, ptr, ptr, ptr, ptr, ptr, ptr, ptr, ptr, ptr, ptr, ptr, ptr, ptr, ptr, ptr, ptr, ptr, ptr, i32, i32, ptr, ptr, ptr, ptr, ptr, ptr, i32, ptr, ptr, ptr }

@sapi_module = external global %struct._sapi_module_struct, align 8
@.str.113 = private unnamed_addr constant [10 x i8] c"</table>\0A\00", align 1
@.str.116 = private unnamed_addr constant [12 x i8] c"</td></tr>\0A\00", align 1

; Function Attrs: nounwind uwtable
define void @php_info_print_table_end() #0 {
  %1 = alloca ptr, align 8
  %2 = load i32, ptr getelementptr inbounds (%struct._sapi_module_struct, ptr @sapi_module, i32 0, i32 32), align 8
  %3 = icmp ne i32 %2, 0
  br i1 %3, label %9, label %4

4:                                                ; preds = %0
  store ptr @.str.113, ptr %1, align 8
  %5 = load ptr, ptr %1, align 8
  %6 = load ptr, ptr %1, align 8
  %7 = call i64 @strlen(ptr noundef %6) #9
  %8 = call i64 @php_output_write(ptr noundef %5, i64 noundef %7) #10
  br label %9

9:                                                ; preds = %4, %0
  ret void
}

; Function Attrs: nounwind uwtable
define void @php_info_print_box_end() #0 {
  %1 = alloca ptr, align 8
  %2 = load i32, ptr getelementptr inbounds (%struct._sapi_module_struct, ptr @sapi_module, i32 0, i32 32), align 8
  %3 = icmp ne i32 %2, 0
  br i1 %3, label %9, label %4

4:                                                ; preds = %0
  store ptr @.str.116, ptr %1, align 8
  %5 = load ptr, ptr %1, align 8
  %6 = load ptr, ptr %1, align 8
  %7 = call i64 @strlen(ptr noundef %6) #9
  %8 = call i64 @php_output_write(ptr noundef %5, i64 noundef %7) #10
  br label %9

9:                                                ; preds = %4, %0
  call void @php_info_print_table_end()
  ret void
}