; Function Attrs: nounwind uwtable
define void @php_info_print_box_end() local_unnamed_addr #0 {
  %1 = load i32, ptr getelementptr inbounds (%struct._sapi_module_struct, ptr @sapi_module, i64 0, i32 32), align 8
  %.not = icmp eq i32 %1, 0
  br i1 %.not, label %2, label %php_info_print_table_end.exit

2:                                                ; preds = %0
  %3 = tail call i64 @php_output_write(ptr noundef nonnull @.str.116, i64 noundef 11) #14
  %.pr = load i32, ptr getelementptr inbounds (%struct._sapi_module_struct, ptr @sapi_module, i64 0, i32 32), align 8
  %.not.i = icmp eq i32 %.pr, 0
  br i1 %.not.i, label %4, label %php_info_print_table_end.exit

4:                                                ; preds = %2
  %5 = tail call i64 @php_output_write(ptr noundef nonnull @.str.113, i64 noundef 9) #14
  br label %php_info_print_table_end.exit

php_info_print_table_end.exit:                    ; preds = %0, %2, %4
  ret void
}